target datalayout = "e-m:e-p270:32:32-p271:32:32-p272:64:64-i64:64-i128:128-f80:128-n8:16:32:64-S128"
target triple = "x86_64-pc-linux-gnu"

%"struct.Luau::CodeGen::X64::RegisterX64" = type { i8 }
%"struct.Luau::CodeGen::X64::OperandX64" = type { i8, %"struct.Luau::CodeGen::X64::RegisterX64", %"struct.Luau::CodeGen::X64::RegisterX64", i8, i32 }
%class.IrCallWrapperX64Fixture = type { %"class.Luau::CodeGen::X64::AssemblyBuilderX64", %"struct.Luau::CodeGen::IrFunction", %"struct.Luau::CodeGen::X64::IrRegAllocX64", %"class.Luau::CodeGen::X64::IrCallWrapperX64" }
%"class.Luau::CodeGen::X64::AssemblyBuilderX64" = type <{ %"class.std::vector", %"class.std::vector", %"class.std::__cxx11::basic_string", i8, [3 x i8], i32, i32, [4 x i8], %"class.std::vector.4", %"class.std::vector.9", %"class.Luau::DenseHashMap", %"class.Luau::DenseHashMap.14", i8, [7 x i8], i64, ptr, ptr, i32, [4 x i8] }>
%"class.std::vector" = type { %"struct.std::_Vector_base" }
%"struct.std::_Vector_base" = type { %"struct.std::_Vector_base<unsigned char, std::allocator<unsigned char>>::_Vector_impl" }
%"struct.std::_Vector_base<unsigned char, std::allocator<unsigned char>>::_Vector_impl" = type { %"struct.std::_Vector_base<unsigned char, std::allocator<unsigned char>>::_Vector_impl_data" }
%"struct.std::_Vector_base<unsigned char, std::allocator<unsigned char>>::_Vector_impl_data" = type { ptr, ptr, ptr }
%"class.std::__cxx11::basic_string" = type { %"struct.std::__cxx11::basic_string<char>::_Alloc_hider", i64, %union.anon.3 }
%"struct.std::__cxx11::basic_string<char>::_Alloc_hider" = type { ptr }
%union.anon.3 = type { i64, [8 x i8] }
%"class.std::vector.4" = type { %"struct.std::_Vector_base.5" }
%"struct.std::_Vector_base.5" = type { %"struct.std::_Vector_base<Luau::CodeGen::Label, std::allocator<Luau::CodeGen::Label>>::_Vector_impl" }
%"struct.std::_Vector_base<Luau::CodeGen::Label, std::allocator<Luau::CodeGen::Label>>::_Vector_impl" = type { %"struct.std::_Vector_base<Luau::CodeGen::Label, std::allocator<Luau::CodeGen::Label>>::_Vector_impl_data" }
%"struct.std::_Vector_base<Luau::CodeGen::Label, std::allocator<Luau::CodeGen::Label>>::_Vector_impl_data" = type { ptr, ptr, ptr }
%"class.std::vector.9" = type { %"struct.std::_Vector_base.10" }
%"struct.std::_Vector_base.10" = type { %"struct.std::_Vector_base<unsigned int, std::allocator<unsigned int>>::_Vector_impl" }
%"struct.std::_Vector_base<unsigned int, std::allocator<unsigned int>>::_Vector_impl" = type { %"struct.std::_Vector_base<unsigned int, std::allocator<unsigned int>>::_Vector_impl_data" }
%"struct.std::_Vector_base<unsigned int, std::allocator<unsigned int>>::_Vector_impl_data" = type { ptr, ptr, ptr }
%"class.Luau::DenseHashMap" = type { %"class.Luau::detail::DenseHashTable" }
%"class.Luau::detail::DenseHashTable" = type <{ ptr, i64, i64, i32, %"struct.std::hash", %"struct.std::equal_to", [2 x i8] }>
%"struct.std::hash" = type { i8 }
%"struct.std::equal_to" = type { i8 }
%"class.Luau::DenseHashMap.14" = type { %"class.Luau::detail::DenseHashTable.15" }
%"class.Luau::detail::DenseHashTable.15" = type <{ ptr, i64, i64, i64, %"struct.std::hash.16", %"struct.std::equal_to.18", [6 x i8] }>
%"struct.std::hash.16" = type { i8 }
%"struct.std::equal_to.18" = type { i8 }
%"struct.Luau::CodeGen::IrFunction" = type { %"class.std::vector.21", %"class.std::vector.26", %"class.std::vector.31", %"class.std::vector.36", %"class.std::vector.41", %"class.std::vector.46", i32, i32, %"class.std::vector.51", %"class.std::vector.9", %"struct.Luau::CodeGen::BytecodeTypeInfo", ptr, i8, %"struct.Luau::CodeGen::CfgInfo" }
%"class.std::vector.21" = type { %"struct.std::_Vector_base.22" }
%"struct.std::_Vector_base.22" = type { %"struct.std::_Vector_base<Luau::CodeGen::IrBlock, std::allocator<Luau::CodeGen::IrBlock>>::_Vector_impl" }
%"struct.std::_Vector_base<Luau::CodeGen::IrBlock, std::allocator<Luau::CodeGen::IrBlock>>::_Vector_impl" = type { %"struct.std::_Vector_base<Luau::CodeGen::IrBlock, std::allocator<Luau::CodeGen::IrBlock>>::_Vector_impl_data" }
%"struct.std::_Vector_base<Luau::CodeGen::IrBlock, std::allocator<Luau::CodeGen::IrBlock>>::_Vector_impl_data" = type { ptr, ptr, ptr }
%"class.std::vector.26" = type { %"struct.std::_Vector_base.27" }
%"struct.std::_Vector_base.27" = type { %"struct.std::_Vector_base<Luau::CodeGen::IrInst, std::allocator<Luau::CodeGen::IrInst>>::_Vector_impl" }
%"struct.std::_Vector_base<Luau::CodeGen::IrInst, std::allocator<Luau::CodeGen::IrInst>>::_Vector_impl" = type { %"struct.std::_Vector_base<Luau::CodeGen::IrInst, std::allocator<Luau::CodeGen::IrInst>>::_Vector_impl_data" }
%"struct.std::_Vector_base<Luau::CodeGen::IrInst, std::allocator<Luau::CodeGen::IrInst>>::_Vector_impl_data" = type { ptr, ptr, ptr }
%"class.std::vector.31" = type { %"struct.std::_Vector_base.32" }
%"struct.std::_Vector_base.32" = type { %"struct.std::_Vector_base<Luau::CodeGen::IrConst, std::allocator<Luau::CodeGen::IrConst>>::_Vector_impl" }
%"struct.std::_Vector_base<Luau::CodeGen::IrConst, std::allocator<Luau::CodeGen::IrConst>>::_Vector_impl" = type { %"struct.std::_Vector_base<Luau::CodeGen::IrConst, std::allocator<Luau::CodeGen::IrConst>>::_Vector_impl_data" }
%"struct.std::_Vector_base<Luau::CodeGen::IrConst, std::allocator<Luau::CodeGen::IrConst>>::_Vector_impl_data" = type { ptr, ptr, ptr }
%"class.std::vector.36" = type { %"struct.std::_Vector_base.37" }
%"struct.std::_Vector_base.37" = type { %"struct.std::_Vector_base<Luau::CodeGen::BytecodeBlock, std::allocator<Luau::CodeGen::BytecodeBlock>>::_Vector_impl" }
%"struct.std::_Vector_base<Luau::CodeGen::BytecodeBlock, std::allocator<Luau::CodeGen::BytecodeBlock>>::_Vector_impl" = type { %"struct.std::_Vector_base<Luau::CodeGen::BytecodeBlock, std::allocator<Luau::CodeGen::BytecodeBlock>>::_Vector_impl_data" }
%"struct.std::_Vector_base<Luau::CodeGen::BytecodeBlock, std::allocator<Luau::CodeGen::BytecodeBlock>>::_Vector_impl_data" = type { ptr, ptr, ptr }
%"class.std::vector.41" = type { %"struct.std::_Vector_base.42" }
%"struct.std::_Vector_base.42" = type { %"struct.std::_Vector_base<Luau::CodeGen::BytecodeTypes, std::allocator<Luau::CodeGen::BytecodeTypes>>::_Vector_impl" }
%"struct.std::_Vector_base<Luau::CodeGen::BytecodeTypes, std::allocator<Luau::CodeGen::BytecodeTypes>>::_Vector_impl" = type { %"struct.std::_Vector_base<Luau::CodeGen::BytecodeTypes, std::allocator<Luau::CodeGen::BytecodeTypes>>::_Vector_impl_data" }
%"struct.std::_Vector_base<Luau::CodeGen::BytecodeTypes, std::allocator<Luau::CodeGen::BytecodeTypes>>::_Vector_impl_data" = type { ptr, ptr, ptr }
%"class.std::vector.46" = type { %"struct.std::_Vector_base.47" }
%"struct.std::_Vector_base.47" = type { %"struct.std::_Vector_base<Luau::CodeGen::BytecodeMapping, std::allocator<Luau::CodeGen::BytecodeMapping>>::_Vector_impl" }
%"struct.std::_Vector_base<Luau::CodeGen::BytecodeMapping, std::allocator<Luau::CodeGen::BytecodeMapping>>::_Vector_impl" = type { %"struct.std::_Vector_base<Luau::CodeGen::BytecodeMapping, std::allocator<Luau::CodeGen::BytecodeMapping>>::_Vector_impl_data" }
%"struct.std::_Vector_base<Luau::CodeGen::BytecodeMapping, std::allocator<Luau::CodeGen::BytecodeMapping>>::_Vector_impl_data" = type { ptr, ptr, ptr }
%"class.std::vector.51" = type { %"struct.std::_Vector_base.52" }
%"struct.std::_Vector_base.52" = type { %"struct.std::_Vector_base<Luau::CodeGen::IrOp, std::allocator<Luau::CodeGen::IrOp>>::_Vector_impl" }
%"struct.std::_Vector_base<Luau::CodeGen::IrOp, std::allocator<Luau::CodeGen::IrOp>>::_Vector_impl" = type { %"struct.std::_Vector_base<Luau::CodeGen::IrOp, std::allocator<Luau::CodeGen::IrOp>>::_Vector_impl_data" }
%"struct.std::_Vector_base<Luau::CodeGen::IrOp, std::allocator<Luau::CodeGen::IrOp>>::_Vector_impl_data" = type { ptr, ptr, ptr }
%"struct.Luau::CodeGen::BytecodeTypeInfo" = type { %"class.std::vector", %"class.std::vector.56", %"class.std::vector", %"class.std::vector.9" }
%"class.std::vector.56" = type { %"struct.std::_Vector_base.57" }
%"struct.std::_Vector_base.57" = type { %"struct.std::_Vector_base<Luau::CodeGen::BytecodeRegTypeInfo, std::allocator<Luau::CodeGen::BytecodeRegTypeInfo>>::_Vector_impl" }
%"struct.std::_Vector_base<Luau::CodeGen::BytecodeRegTypeInfo, std::allocator<Luau::CodeGen::BytecodeRegTypeInfo>>::_Vector_impl" = type { %"struct.std::_Vector_base<Luau::CodeGen::BytecodeRegTypeInfo, std::allocator<Luau::CodeGen::BytecodeRegTypeInfo>>::_Vector_impl_data" }
%"struct.std::_Vector_base<Luau::CodeGen::BytecodeRegTypeInfo, std::allocator<Luau::CodeGen::BytecodeRegTypeInfo>>::_Vector_impl_data" = type { ptr, ptr, ptr }
%"struct.Luau::CodeGen::CfgInfo" = type { %"class.std::vector.9", %"class.std::vector.9", %"class.std::vector.9", %"class.std::vector.9", %"class.std::vector.9", %"class.std::vector.9", %"class.std::vector.9", %"class.std::vector.61", %"class.std::vector.66", %"class.std::vector.66", %"class.std::vector.66", %"struct.Luau::CodeGen::RegisterSet" }
%"class.std::vector.61" = type { %"struct.std::_Vector_base.62" }
%"struct.std::_Vector_base.62" = type { %"struct.std::_Vector_base<Luau::CodeGen::BlockOrdering, std::allocator<Luau::CodeGen::BlockOrdering>>::_Vector_impl" }
%"struct.std::_Vector_base<Luau::CodeGen::BlockOrdering, std::allocator<Luau::CodeGen::BlockOrdering>>::_Vector_impl" = type { %"struct.std::_Vector_base<Luau::CodeGen::BlockOrdering, std::allocator<Luau::CodeGen::BlockOrdering>>::_Vector_impl_data" }
%"struct.std::_Vector_base<Luau::CodeGen::BlockOrdering, std::allocator<Luau::CodeGen::BlockOrdering>>::_Vector_impl_data" = type { ptr, ptr, ptr }
%"class.std::vector.66" = type { %"struct.std::_Vector_base.67" }
%"struct.std::_Vector_base.67" = type { %"struct.std::_Vector_base<Luau::CodeGen::RegisterSet, std::allocator<Luau::CodeGen::RegisterSet>>::_Vector_impl" }
%"struct.std::_Vector_base<Luau::CodeGen::RegisterSet, std::allocator<Luau::CodeGen::RegisterSet>>::_Vector_impl" = type { %"struct.std::_Vector_base<Luau::CodeGen::RegisterSet, std::allocator<Luau::CodeGen::RegisterSet>>::_Vector_impl_data" }
%"struct.std::_Vector_base<Luau::CodeGen::RegisterSet, std::allocator<Luau::CodeGen::RegisterSet>>::_Vector_impl_data" = type { ptr, ptr, ptr }
%"struct.Luau::CodeGen::RegisterSet" = type <{ %"class.std::bitset", i8, i8, [6 x i8] }>
%"class.std::bitset" = type { %"struct.std::_Base_bitset" }
%"struct.std::_Base_bitset" = type { [4 x i64] }
%"struct.Luau::CodeGen::X64::IrRegAllocX64" = type { ptr, ptr, ptr, i32, %"struct.std::array", %"struct.std::array.71", %"struct.std::array", %"struct.std::array.71", i8, %"class.std::bitset", i32, i32, %"class.std::vector.72" }
%"struct.std::array" = type { [16 x i8] }
%"struct.std::array.71" = type { [16 x i32] }
%"class.std::vector.72" = type { %"struct.std::_Vector_base.73" }
%"struct.std::_Vector_base.73" = type { %"struct.std::_Vector_base<Luau::CodeGen::X64::IrSpillX64, std::allocator<Luau::CodeGen::X64::IrSpillX64>>::_Vector_impl" }
%"struct.std::_Vector_base<Luau::CodeGen::X64::IrSpillX64, std::allocator<Luau::CodeGen::X64::IrSpillX64>>::_Vector_impl" = type { %"struct.std::_Vector_base<Luau::CodeGen::X64::IrSpillX64, std::allocator<Luau::CodeGen::X64::IrSpillX64>>::_Vector_impl_data" }
%"struct.std::_Vector_base<Luau::CodeGen::X64::IrSpillX64, std::allocator<Luau::CodeGen::X64::IrSpillX64>>::_Vector_impl_data" = type { ptr, ptr, ptr }
%"class.Luau::CodeGen::X64::IrCallWrapperX64" = type { ptr, ptr, i32, %"struct.std::array.77", i32, i32, i32, %"struct.Luau::CodeGen::X64::OperandX64", %"struct.std::array.78", %"struct.std::array.78" }
%"struct.std::array.77" = type { [6 x %"struct.Luau::CodeGen::X64::CallArgument"] }
%"struct.Luau::CodeGen::X64::CallArgument" = type <{ i8, [3 x i8], %"struct.Luau::CodeGen::X64::OperandX64", %"struct.Luau::CodeGen::IrOp", %"struct.Luau::CodeGen::X64::OperandX64", i8, [3 x i8] }>
%"struct.Luau::CodeGen::IrOp" = type { i32 }
%"struct.std::array.78" = type { [16 x i8] }

; Function Attrs: mustprogress nounwind uwtable
define linkonce_odr dso_local void @_ZNSt15__new_allocatorIN4Luau7CodeGen3X6410IrSpillX64EED2Ev(ptr noundef nonnull align 1 dereferenceable(1) %0) unnamed_addr #1 comdat align 2 {
  %2 = alloca ptr, align 8
  store ptr %0, ptr %2, align 8
  ret void
}

; Function Attrs: mustprogress nounwind uwtable
define linkonce_odr dso_local void @_ZNSt15__new_allocatorIN4Luau7CodeGen3X6410IrSpillX64EE10deallocateEPS3_m(ptr noundef nonnull align 1 dereferenceable(1) %0, ptr noundef %1, i64 noundef %2) #1 comdat align 2 {
  %4 = alloca ptr, align 8
  %5 = alloca ptr, align 8
  %6 = alloca i64, align 8
  store ptr %0, ptr %4, align 8
  store ptr %1, ptr %5, align 8
  store i64 %2, ptr %6, align 8
  %7 = load ptr, ptr %5, align 8
  %8 = load i64, ptr %6, align 8
  %9 = mul i64 %8, 16
  call void @_ZdlPvm(ptr noundef %7, i64 noundef %9) #13
  ret void
}

; Function Attrs: mustprogress nounwind uwtable
define linkonce_odr dso_local void @_ZNSaIN4Luau7CodeGen3X6410IrSpillX64EED2Ev(ptr noundef nonnull align 1 dereferenceable(1) %0) unnamed_addr #1 comdat align 2 {
  %2 = alloca ptr, align 8
  store ptr %0, ptr %2, align 8
  %3 = load ptr, ptr %2, align 8
  call void @_ZNSt15__new_allocatorIN4Luau7CodeGen3X6410IrSpillX64EED2Ev(ptr noundef nonnull align 1 dereferenceable(1) %3) #11
  ret void
}

; Function Attrs: mustprogress uwtable
define linkonce_odr dso_local void @_ZNSt16allocator_traitsISaIN4Luau7CodeGen3X6410IrSpillX64EEE10deallocateERS4_PS3_m(ptr noundef nonnull align 1 dereferenceable(1) %0, ptr noundef %1, i64 noundef %2) #4 comdat align 2 {
  %4 = alloca ptr, align 8
  %5 = alloca ptr, align 8
  %6 = alloca i64, align 8
  store ptr %0, ptr %4, align 8
  store ptr %1, ptr %5, align 8
  store i64 %2, ptr %6, align 8
  %7 = load ptr, ptr %4, align 8
  %8 = load ptr, ptr %5, align 8
  %9 = load i64, ptr %6, align 8
  call void @_ZNSt15__new_allocatorIN4Luau7CodeGen3X6410IrSpillX64EE10deallocateEPS3_m(ptr noundef nonnull align 1 dereferenceable(1) %7, ptr noundef %8, i64 noundef %9)
  ret void
}

; Function Attrs: mustprogress nounwind uwtable
define linkonce_odr dso_local void @_ZNSt12_Destroy_auxILb1EE9__destroyIPN4Luau7CodeGen3X6410IrSpillX64EEEvT_S7_(ptr noundef %0, ptr noundef %1) #1 comdat align 2 {
  %3 = alloca ptr, align 8
  %4 = alloca ptr, align 8
  store ptr %0, ptr %3, align 8
  store ptr %1, ptr %4, align 8
  ret void
}

; Function Attrs: mustprogress nounwind uwtable
define linkonce_odr dso_local void @_ZNSt12_Vector_baseIN4Luau7CodeGen3X6410IrSpillX64ESaIS3_EE12_Vector_implD2Ev(ptr noundef nonnull align 8 dereferenceable(24) %0) unnamed_addr #1 comdat align 2 {
  %2 = alloca ptr, align 8
  store ptr %0, ptr %2, align 8
  %3 = load ptr, ptr %2, align 8
  call void @_ZNSaIN4Luau7CodeGen3X6410IrSpillX64EED2Ev(ptr noundef nonnull align 1 dereferenceable(1) %3) #11
  ret void
}

; Function Attrs: mustprogress uwtable
define linkonce_odr dso_local void @_ZNSt12_Vector_baseIN4Luau7CodeGen3X6410IrSpillX64ESaIS3_EE13_M_deallocateEPS3_m(ptr noundef nonnull align 8 dereferenceable(24) %0, ptr noundef %1, i64 noundef %2) #4 comdat align 2 {
  %4 = alloca ptr, align 8
  %5 = alloca ptr, align 8
  %6 = alloca i64, align 8
  store ptr %0, ptr %4, align 8
  store ptr %1, ptr %5, align 8
  store i64 %2, ptr %6, align 8
  %7 = load ptr, ptr %4, align 8
  %8 = load ptr, ptr %5, align 8
  %9 = icmp ne ptr %8, null
  br i1 %9, label %10, label %14

10:                                               ; preds = %3
  %11 = getelementptr inbounds %"struct.std::_Vector_base.73", ptr %7, i32 0, i32 0
  %12 = load ptr, ptr %5, align 8
  %13 = load i64, ptr %6, align 8
  call void @_ZNSt16allocator_traitsISaIN4Luau7CodeGen3X6410IrSpillX64EEE10deallocateERS4_PS3_m(ptr noundef nonnull align 1 dereferenceable(1) %11, ptr noundef %12, i64 noundef %13)
  br label %14

14:                                               ; preds = %10, %3
  ret void
}

; Function Attrs: mustprogress uwtable
define linkonce_odr dso_local void @_ZSt8_DestroyIPN4Luau7CodeGen3X6410IrSpillX64EEvT_S5_(ptr noundef %0, ptr noundef %1) #4 comdat {
  %3 = alloca ptr, align 8
  %4 = alloca ptr, align 8
  store ptr %0, ptr %3, align 8
  store ptr %1, ptr %4, align 8
  %5 = load ptr, ptr %3, align 8
  %6 = load ptr, ptr %4, align 8
  call void @_ZNSt12_Destroy_auxILb1EE9__destroyIPN4Luau7CodeGen3X6410IrSpillX64EEEvT_S7_(ptr noundef %5, ptr noundef %6)
  ret void
}

; Function Attrs: noreturn nounwind uwtable
define linkonce_odr hidden void @__clang_call_terminate(ptr noundef %0) #6 comdat {
  %2 = call ptr @__cxa_begin_catch(ptr %0) #11
  call void @_ZSt9terminatev() #12
  unreachable
}

; Function Attrs: mustprogress nounwind uwtable
define linkonce_odr dso_local void @_ZNSt12_Vector_baseIN4Luau7CodeGen3X6410IrSpillX64ESaIS3_EED2Ev(ptr noundef nonnull align 8 dereferenceable(24) %0) unnamed_addr #1 comdat align 2 personality ptr @__gxx_personality_v0 {
  %2 = alloca ptr, align 8
  store ptr %0, ptr %2, align 8
  %3 = load ptr, ptr %2, align 8
  %4 = getelementptr inbounds %"struct.std::_Vector_base.73", ptr %3, i32 0, i32 0
  %5 = getelementptr inbounds %"struct.std::_Vector_base<Luau::CodeGen::X64::IrSpillX64, std::allocator<Luau::CodeGen::X64::IrSpillX64>>::_Vector_impl_data", ptr %4, i32 0, i32 0
  %6 = load ptr, ptr %5, align 8
  %7 = getelementptr inbounds %"struct.std::_Vector_base.73", ptr %3, i32 0, i32 0
  %8 = getelementptr inbounds %"struct.std::_Vector_base<Luau::CodeGen::X64::IrSpillX64, std::allocator<Luau::CodeGen::X64::IrSpillX64>>::_Vector_impl_data", ptr %7, i32 0, i32 2
  %9 = load ptr, ptr %8, align 8
  %10 = getelementptr inbounds %"struct.std::_Vector_base.73", ptr %3, i32 0, i32 0
  %11 = getelementptr inbounds %"struct.std::_Vector_base<Luau::CodeGen::X64::IrSpillX64, std::allocator<Luau::CodeGen::X64::IrSpillX64>>::_Vector_impl_data", ptr %10, i32 0, i32 0
  %12 = load ptr, ptr %11, align 8
  %13 = ptrtoint ptr %9 to i64
  %14 = ptrtoint ptr %12 to i64
  %15 = sub i64 %13, %14
  %16 = sdiv exact i64 %15, 16
  invoke void @_ZNSt12_Vector_baseIN4Luau7CodeGen3X6410IrSpillX64ESaIS3_EE13_M_deallocateEPS3_m(ptr noundef nonnull align 8 dereferenceable(24) %3, ptr noundef %6, i64 noundef %16)
          to label %17 unwind label %19

17:                                               ; preds = %1
  %18 = getelementptr inbounds %"struct.std::_Vector_base.73", ptr %3, i32 0, i32 0
  call void @_ZNSt12_Vector_baseIN4Luau7CodeGen3X6410IrSpillX64ESaIS3_EE12_Vector_implD2Ev(ptr noundef nonnull align 8 dereferenceable(24) %18) #11
  ret void

19:                                               ; preds = %1
  %20 = landingpad { ptr, i32 }
          catch ptr null
  %21 = extractvalue { ptr, i32 } %20, 0
  call void @__clang_call_terminate(ptr %21) #12
  unreachable
}

; Function Attrs: mustprogress uwtable
define linkonce_odr dso_local void @_ZSt8_DestroyIPN4Luau7CodeGen3X6410IrSpillX64ES3_EvT_S5_RSaIT0_E(ptr noundef %0, ptr noundef %1, ptr noundef nonnull align 1 dereferenceable(1) %2) #4 comdat {
  %4 = alloca ptr, align 8
  %5 = alloca ptr, align 8
  %6 = alloca ptr, align 8
  store ptr %0, ptr %4, align 8
  store ptr %1, ptr %5, align 8
  store ptr %2, ptr %6, align 8
  %7 = load ptr, ptr %4, align 8
  %8 = load ptr, ptr %5, align 8
  call void @_ZSt8_DestroyIPN4Luau7CodeGen3X6410IrSpillX64EEvT_S5_(ptr noundef %7, ptr noundef %8)
  ret void
}

; Function Attrs: mustprogress nounwind uwtable
define linkonce_odr dso_local noundef nonnull align 1 dereferenceable(1) ptr @_ZNSt12_Vector_baseIN4Luau7CodeGen3X6410IrSpillX64ESaIS3_EE19_M_get_Tp_allocatorEv(ptr noundef nonnull align 8 dereferenceable(24) %0) #1 comdat align 2 {
  %2 = alloca ptr, align 8
  store ptr %0, ptr %2, align 8
  %3 = load ptr, ptr %2, align 8
  %4 = getelementptr inbounds %"struct.std::_Vector_base.73", ptr %3, i32 0, i32 0
  ret ptr %4
}

; Function Attrs: mustprogress nounwind uwtable
define linkonce_odr dso_local void @_ZNSt6vectorIN4Luau7CodeGen3X6410IrSpillX64ESaIS3_EED2Ev(ptr noundef nonnull align 8 dereferenceable(24) %0) unnamed_addr #1 comdat align 2 personality ptr @__gxx_personality_v0 {
  %2 = alloca ptr, align 8
  store ptr %0, ptr %2, align 8
  %3 = load ptr, ptr %2, align 8
  %4 = getelementptr inbounds %"struct.std::_Vector_base.73", ptr %3, i32 0, i32 0
  %5 = getelementptr inbounds %"struct.std::_Vector_base<Luau::CodeGen::X64::IrSpillX64, std::allocator<Luau::CodeGen::X64::IrSpillX64>>::_Vector_impl_data", ptr %4, i32 0, i32 0
  %6 = load ptr, ptr %5, align 8
  %7 = getelementptr inbounds %"struct.std::_Vector_base.73", ptr %3, i32 0, i32 0
  %8 = getelementptr inbounds %"struct.std::_Vector_base<Luau::CodeGen::X64::IrSpillX64, std::allocator<Luau::CodeGen::X64::IrSpillX64>>::_Vector_impl_data", ptr %7, i32 0, i32 1
  %9 = load ptr, ptr %8, align 8
  %10 = call noundef nonnull align 1 dereferenceable(1) ptr @_ZNSt12_Vector_baseIN4Luau7CodeGen3X6410IrSpillX64ESaIS3_EE19_M_get_Tp_allocatorEv(ptr noundef nonnull align 8 dereferenceable(24) %3) #11
  invoke void @_ZSt8_DestroyIPN4Luau7CodeGen3X6410IrSpillX64ES3_EvT_S5_RSaIT0_E(ptr noundef %6, ptr noundef %9, ptr noundef nonnull align 1 dereferenceable(1) %10)
          to label %11 unwind label %12

11:                                               ; preds = %1
  call void @_ZNSt12_Vector_baseIN4Luau7CodeGen3X6410IrSpillX64ESaIS3_EED2Ev(ptr noundef nonnull align 8 dereferenceable(24) %3) #11
  ret void

12:                                               ; preds = %1
  %13 = landingpad { ptr, i32 }
          catch ptr null
  %14 = extractvalue { ptr, i32 } %13, 0
  call void @__clang_call_terminate(ptr %14) #12
  unreachable
}

; Function Attrs: mustprogress nounwind uwtable
define linkonce_odr dso_local void @_ZN4Luau7CodeGen3X6413IrRegAllocX64D2Ev(ptr noundef nonnull align 8 dereferenceable(256) %0) unnamed_addr #1 comdat align 2 {
  %2 = alloca ptr, align 8
  store ptr %0, ptr %2, align 8
  %3 = load ptr, ptr %2, align 8
  %4 = getelementptr inbounds %"struct.Luau::CodeGen::X64::IrRegAllocX64", ptr %3, i32 0, i32 12
  call void @_ZNSt6vectorIN4Luau7CodeGen3X6410IrSpillX64ESaIS3_EED2Ev(ptr noundef nonnull align 8 dereferenceable(24) %4) #11
  ret void
}

; Function Attrs: mustprogress nounwind uwtable
define linkonce_odr dso_local void @_ZN23IrCallWrapperX64FixtureD2Ev(ptr noundef nonnull align 8 dereferenceable(1368) %0) unnamed_addr #1 comdat align 2 {
  %2 = alloca ptr, align 8
  store ptr %0, ptr %2, align 8
  %3 = load ptr, ptr %2, align 8
  %4 = getelementptr inbounds %class.IrCallWrapperX64Fixture, ptr %3, i32 0, i32 2
  call void @_ZN4Luau7CodeGen3X6413IrRegAllocX64D2Ev(ptr noundef nonnull align 8 dereferenceable(256) %4) #11
  %5 = getelementptr inbounds %class.IrCallWrapperX64Fixture, ptr %3, i32 0, i32 1
  call void @_ZN4Luau7CodeGen10IrFunctionD2Ev(ptr noundef nonnull align 8 dereferenceable(616) %5) #11
  %6 = getelementptr inbounds %class.IrCallWrapperX64Fixture, ptr %3, i32 0, i32 0
  call void @_ZN4Luau7CodeGen3X6418AssemblyBuilderX64D1Ev(ptr noundef nonnull align 8 dereferenceable(252) %6) #11
  ret void
}

; Function Attrs: mustprogress nounwind uwtable
define internal void @_ZN12_GLOBAL__N_121DOCTEST_ANON_CLASS_51D2Ev(ptr noundef nonnull align 8 dereferenceable(1368) %0) unnamed_addr #1 align 2 {
  %2 = alloca ptr, align 8
  store ptr %0, ptr %2, align 8
  %3 = load ptr, ptr %2, align 8
  call void @_ZN23IrCallWrapperX64FixtureD2Ev(ptr noundef nonnull align 8 dereferenceable(1368) %3) #11
  ret void
}